; Function Attrs: nounwind uwtable
define internal { i64, ptr } @f_modulemeta(ptr noundef %0, i64 %1, ptr %2) #0 {
  %4 = tail call i32 @jv_get_kind(i64 %1, ptr %2) #14
  %.not = icmp eq i32 %4, 5
  br i1 %.not, label %10, label %5

5:                                                ; preds = %3
  %6 = tail call { i64, ptr } @jv_string(ptr noundef nonnull @.str.216) #14
  %7 = extractvalue { i64, ptr } %6, 0
  %8 = extractvalue { i64, ptr } %6, 1
  tail call void @jv_free(i64 %1, ptr %2) #14
  %9 = tail call { i64, ptr } @jv_invalid_with_msg(i64 %7, ptr %8) #14
  br label %12

10:                                               ; preds = %3
  %11 = tail call { i64, ptr } @load_module_meta(ptr noundef %0, i64 %1, ptr %2) #14
  br label %12

12:                                               ; preds = %10, %5
  %.pn = phi { i64, ptr } [ %9, %5 ], [ %11, %10 ]
  ret { i64, ptr } %.pn
}